target datalayout = "e-m:e-p270:32:32-p271:32:32-p272:64:64-i64:64-i128:128-f80:128-n8:16:32:64-S128"
target triple = "x86_64-pc-linux-gnu"

%"struct.NMTUtil::S" = type { ptr, ptr }
%class.MemReporterBase = type { i64, ptr, %class.StreamAutoIndentor }
%class.StreamAutoIndentor = type <{ ptr, i8, [7 x i8] }>
%class.MemoryCounter = type { i64, i64, i64, i64 }
%"struct.Atomic::LoadImpl" = type { i8 }
%"struct.Atomic::PlatformLoad" = type { i8 }

@.str.5 = private unnamed_addr constant [1 x i8] zeroinitializer, align 1
@.str.6 = private unnamed_addr constant [8 x i8] c"malloc=\00", align 1
@.str.7 = private unnamed_addr constant [17 x i8] c"(%s%lu%s type=%s\00", align 1
@.str.8 = private unnamed_addr constant [9 x i8] c"(%s%lu%s\00", align 1
@.str.9 = private unnamed_addr constant [6 x i8] c" #%lu\00", align 1
@.str.10 = private unnamed_addr constant [2 x i8] c")\00", align 1
@.str.11 = private unnamed_addr constant [11 x i8] c" (at peak)\00", align 1
@.str.12 = private unnamed_addr constant [19 x i8] c" (peak=%lu%s #%lu)\00", align 1
@_ZN7NMTUtil8_stringsE = external global [28 x %"struct.NMTUtil::S"], align 16

; Function Attrs: mustprogress nounwind uwtable
define linkonce_odr hidden noundef i64 @_ZNK6Atomic12PlatformLoadILm8EEclImEET_PVKS3_(ptr noundef nonnull align 1 dereferenceable(1) %0, ptr noundef %1) #1 comdat align 2 {
  %3 = alloca ptr, align 8
  %4 = alloca ptr, align 8
  store ptr %0, ptr %3, align 8
  store ptr %1, ptr %4, align 8
  %5 = load ptr, ptr %4, align 8
  %6 = load volatile i64, ptr %5, align 8
  ret i64 %6
}

; Function Attrs: mustprogress nounwind uwtable
define linkonce_odr hidden noundef i64 @_ZNK6Atomic8LoadImplImNS_12PlatformLoadILm8EEEvEclEPVKm(ptr noundef nonnull align 1 dereferenceable(1) %0, ptr noundef %1) #1 comdat align 2 {
  %3 = alloca ptr, align 8
  %4 = alloca ptr, align 8
  %5 = alloca %"struct.Atomic::PlatformLoad", align 1
  store ptr %0, ptr %3, align 8
  store ptr %1, ptr %4, align 8
  %6 = load ptr, ptr %4, align 8
  %7 = call noundef i64 @_ZNK6Atomic12PlatformLoadILm8EEclImEET_PVKS3_(ptr noundef nonnull align 1 dereferenceable(1) %5, ptr noundef %6)
  ret i64 %7
}

; Function Attrs: mustprogress nounwind uwtable
define linkonce_odr hidden noundef i32 @_ZN7NMTUtil13flag_to_indexE8MEMFLAGS(i8 noundef zeroext %0) #1 comdat align 2 {
  %2 = alloca i8, align 1
  store i8 %0, ptr %2, align 1
  %3 = load i8, ptr %2, align 1
  %4 = zext i8 %3 to i32
  ret i32 %4
}

; Function Attrs: mustprogress nounwind uwtable
define linkonce_odr hidden noundef i64 @_ZN7NMTUtil15amount_in_scaleEmm(i64 noundef %0, i64 noundef %1) #1 comdat align 2 {
  %3 = alloca i64, align 8
  %4 = alloca i64, align 8
  store i64 %0, ptr %3, align 8
  store i64 %1, ptr %4, align 8
  %5 = load i64, ptr %3, align 8
  %6 = load i64, ptr %4, align 8
  %7 = udiv i64 %6, 2
  %8 = add i64 %5, %7
  %9 = load i64, ptr %4, align 8
  %10 = udiv i64 %8, %9
  ret i64 %10
}

; Function Attrs: mustprogress nounwind uwtable
define linkonce_odr hidden noundef i64 @_ZN6Atomic4loadImEET_PVKS1_(ptr noundef %0) #1 comdat align 2 {
  %2 = alloca ptr, align 8
  %3 = alloca %"struct.Atomic::LoadImpl", align 1
  store ptr %0, ptr %2, align 8
  %4 = load ptr, ptr %2, align 8
  %5 = call noundef i64 @_ZNK6Atomic8LoadImplImNS_12PlatformLoadILm8EEEvEclEPVKm(ptr noundef nonnull align 1 dereferenceable(1) %3, ptr noundef %4)
  ret i64 %5
}

; Function Attrs: mustprogress nounwind uwtable
define linkonce_odr hidden noundef i64 @_ZNK13MemoryCounter10peak_countEv(ptr noundef nonnull align 8 dereferenceable(32) %0) #1 comdat align 2 {
  %2 = alloca ptr, align 8
  store ptr %0, ptr %2, align 8
  %3 = load ptr, ptr %2, align 8
  %4 = getelementptr inbounds %class.MemoryCounter, ptr %3, i32 0, i32 2
  %5 = call noundef i64 @_ZN6Atomic4loadImEET_PVKS1_(ptr noundef %4)
  ret i64 %5
}

; Function Attrs: mustprogress nounwind uwtable
define linkonce_odr hidden void @_ZN12outputStream9print_rawEPKc(ptr noundef nonnull align 8 dereferenceable(56) %0, ptr noundef %1) #1 comdat align 2 {
  %3 = alloca ptr, align 8
  %4 = alloca ptr, align 8
  store ptr %0, ptr %3, align 8
  store ptr %1, ptr %4, align 8
  %5 = load ptr, ptr %3, align 8
  %6 = load ptr, ptr %4, align 8
  %7 = load ptr, ptr %4, align 8
  %8 = call i64 @strlen(ptr noundef %7) #5
  call void @_ZN12outputStream9print_rawEPKcm(ptr noundef nonnull align 8 dereferenceable(56) %5, ptr noundef %6, i64 noundef %8)
  ret void
}

; Function Attrs: mustprogress nounwind uwtable
define linkonce_odr hidden noundef i64 @_ZNK13MemoryCounter9peak_sizeEv(ptr noundef nonnull align 8 dereferenceable(32) %0) #1 comdat align 2 {
  %2 = alloca ptr, align 8
  store ptr %0, ptr %2, align 8
  %3 = load ptr, ptr %2, align 8
  %4 = getelementptr inbounds %class.MemoryCounter, ptr %3, i32 0, i32 3
  %5 = call noundef i64 @_ZN6Atomic4loadImEET_PVKS1_(ptr noundef %4)
  ret i64 %5
}

; Function Attrs: mustprogress nounwind uwtable
define linkonce_odr hidden noundef ptr @_ZN7NMTUtil12flag_to_nameE8MEMFLAGS(i8 noundef zeroext %0) #1 comdat align 2 {
  %2 = alloca i8, align 1
  store i8 %0, ptr %2, align 1
  %3 = load i8, ptr %2, align 1
  %4 = call noundef i32 @_ZN7NMTUtil13flag_to_indexE8MEMFLAGS(i8 noundef zeroext %3)
  %5 = sext i32 %4 to i64
  %6 = getelementptr inbounds [28 x %"struct.NMTUtil::S"], ptr @_ZN7NMTUtil8_stringsE, i64 0, i64 %5
  %7 = getelementptr inbounds %"struct.NMTUtil::S", ptr %6, i32 0, i32 1
  %8 = load ptr, ptr %7, align 8
  ret ptr %8
}

; Function Attrs: mustprogress nounwind uwtable
define linkonce_odr hidden noundef i64 @_ZNK15MemReporterBase23amount_in_current_scaleEm(ptr noundef nonnull align 8 dereferenceable(32) %0, i64 noundef %1) #1 comdat align 2 {
  %3 = alloca ptr, align 8
  %4 = alloca i64, align 8
  store ptr %0, ptr %3, align 8
  store i64 %1, ptr %4, align 8
  %5 = load ptr, ptr %3, align 8
  %6 = load i64, ptr %4, align 8
  %7 = getelementptr inbounds %class.MemReporterBase, ptr %5, i32 0, i32 0
  %8 = load i64, ptr %7, align 8
  %9 = call noundef i64 @_ZN7NMTUtil15amount_in_scaleEmm(i64 noundef %6, i64 noundef %8)
  ret i64 %9
}

; Function Attrs: mustprogress nounwind uwtable
define linkonce_odr hidden noundef i64 @_ZNK13MemoryCounter5countEv(ptr noundef nonnull align 8 dereferenceable(32) %0) #1 comdat align 2 {
  %2 = alloca ptr, align 8
  store ptr %0, ptr %2, align 8
  %3 = load ptr, ptr %2, align 8
  %4 = getelementptr inbounds %class.MemoryCounter, ptr %3, i32 0, i32 0
  %5 = call noundef i64 @_ZN6Atomic4loadImEET_PVKS1_(ptr noundef %4)
  ret i64 %5
}

; Function Attrs: mustprogress nounwind uwtable
define linkonce_odr hidden noundef i64 @_ZNK13MemoryCounter4sizeEv(ptr noundef nonnull align 8 dereferenceable(32) %0) #1 comdat align 2 {
  %2 = alloca ptr, align 8
  store ptr %0, ptr %2, align 8
  %3 = load ptr, ptr %2, align 8
  %4 = getelementptr inbounds %class.MemoryCounter, ptr %3, i32 0, i32 1
  %5 = call noundef i64 @_ZN6Atomic4loadImEET_PVKS1_(ptr noundef %4)
  ret i64 %5
}

; Function Attrs: mustprogress nounwind uwtable
define linkonce_odr hidden noundef ptr @_ZNK15MemReporterBase6outputEv(ptr noundef nonnull align 8 dereferenceable(32) %0) #1 comdat align 2 {
  %2 = alloca ptr, align 8
  store ptr %0, ptr %2, align 8
  %3 = load ptr, ptr %2, align 8
  %4 = getelementptr inbounds %class.MemReporterBase, ptr %3, i32 0, i32 1
  %5 = load ptr, ptr %4, align 8
  ret ptr %5
}

; Function Attrs: mustprogress nounwind uwtable
define linkonce_odr hidden noundef ptr @_ZNK15MemReporterBase13current_scaleEv(ptr noundef nonnull align 8 dereferenceable(32) %0) #1 comdat align 2 {
  %2 = alloca ptr, align 8
  store ptr %0, ptr %2, align 8
  %3 = load ptr, ptr %2, align 8
  %4 = getelementptr inbounds %class.MemReporterBase, ptr %3, i32 0, i32 0
  %5 = load i64, ptr %4, align 8
  %6 = call noundef ptr @_ZN7NMTUtil10scale_nameEm(i64 noundef %5)
  ret ptr %6
}

; Function Attrs: mustprogress nounwind uwtable
define hidden void @_ZNK15MemReporterBase12print_mallocEPK13MemoryCounter8MEMFLAGS(ptr noundef nonnull align 8 dereferenceable(32) %0, ptr noundef %1, i8 noundef zeroext %2) #1 align 2 {
  %4 = alloca ptr, align 8
  %5 = alloca ptr, align 8
  %6 = alloca i8, align 1
  %7 = alloca ptr, align 8
  %8 = alloca ptr, align 8
  %9 = alloca ptr, align 8
  %10 = alloca i64, align 8
  %11 = alloca i64, align 8
  %12 = alloca i64, align 8
  %13 = alloca i64, align 8
  store ptr %0, ptr %4, align 8
  store ptr %1, ptr %5, align 8
  store i8 %2, ptr %6, align 1
  %14 = load ptr, ptr %4, align 8
  %15 = call noundef ptr @_ZNK15MemReporterBase13current_scaleEv(ptr noundef nonnull align 8 dereferenceable(32) %14)
  store ptr %15, ptr %7, align 8
  %16 = call noundef ptr @_ZNK15MemReporterBase6outputEv(ptr noundef nonnull align 8 dereferenceable(32) %14)
  store ptr %16, ptr %8, align 8
  %17 = load i8, ptr %6, align 1
  %18 = icmp eq i8 %17, 3
  %19 = select i1 %18, ptr @.str.5, ptr @.str.6
  store ptr %19, ptr %9, align 8
  %20 = load ptr, ptr %5, align 8
  %21 = call noundef i64 @_ZNK13MemoryCounter4sizeEv(ptr noundef nonnull align 8 dereferenceable(32) %20)
  store i64 %21, ptr %10, align 8
  %22 = load ptr, ptr %5, align 8
  %23 = call noundef i64 @_ZNK13MemoryCounter5countEv(ptr noundef nonnull align 8 dereferenceable(32) %22)
  store i64 %23, ptr %11, align 8
  %24 = load i8, ptr %6, align 1
  %25 = icmp ne i8 %24, 27
  br i1 %25, label %26, label %34

26:                                               ; preds = %3
  %27 = load ptr, ptr %8, align 8
  %28 = load ptr, ptr %9, align 8
  %29 = load i64, ptr %10, align 8
  %30 = call noundef i64 @_ZNK15MemReporterBase23amount_in_current_scaleEm(ptr noundef nonnull align 8 dereferenceable(32) %14, i64 noundef %29)
  %31 = load ptr, ptr %7, align 8
  %32 = load i8, ptr %6, align 1
  %33 = call noundef ptr @_ZN7NMTUtil12flag_to_nameE8MEMFLAGS(i8 noundef zeroext %32)
  call void (ptr, ptr, ...) @_ZN12outputStream5printEPKcz(ptr noundef nonnull align 8 dereferenceable(56) %27, ptr noundef @.str.7, ptr noundef %28, i64 noundef %30, ptr noundef %31, ptr noundef %33)
  br label %40

34:                                               ; preds = %3
  %35 = load ptr, ptr %8, align 8
  %36 = load ptr, ptr %9, align 8
  %37 = load i64, ptr %10, align 8
  %38 = call noundef i64 @_ZNK15MemReporterBase23amount_in_current_scaleEm(ptr noundef nonnull align 8 dereferenceable(32) %14, i64 noundef %37)
  %39 = load ptr, ptr %7, align 8
  call void (ptr, ptr, ...) @_ZN12outputStream5printEPKcz(ptr noundef nonnull align 8 dereferenceable(56) %35, ptr noundef @.str.8, ptr noundef %36, i64 noundef %38, ptr noundef %39)
  br label %40

40:                                               ; preds = %34, %26
  %41 = load i64, ptr %11, align 8
  %42 = icmp ugt i64 %41, 0
  br i1 %42, label %43, label %46

43:                                               ; preds = %40
  %44 = load ptr, ptr %8, align 8
  %45 = load i64, ptr %11, align 8
  call void (ptr, ptr, ...) @_ZN12outputStream5printEPKcz(ptr noundef nonnull align 8 dereferenceable(56) %44, ptr noundef @.str.9, i64 noundef %45)
  br label %46

46:                                               ; preds = %43, %40
  %47 = load ptr, ptr %8, align 8
  call void (ptr, ptr, ...) @_ZN12outputStream5printEPKcz(ptr noundef nonnull align 8 dereferenceable(56) %47, ptr noundef @.str.10)
  %48 = load ptr, ptr %5, align 8
  %49 = call noundef i64 @_ZNK13MemoryCounter9peak_sizeEv(ptr noundef nonnull align 8 dereferenceable(32) %48)
  store i64 %49, ptr %12, align 8
  %50 = load i64, ptr %12, align 8
  %51 = load i64, ptr %10, align 8
  %52 = icmp eq i64 %50, %51
  br i1 %52, label %53, label %55

53:                                               ; preds = %46
  %54 = load ptr, ptr %8, align 8
  call void @_ZN12outputStream9print_rawEPKc(ptr noundef nonnull align 8 dereferenceable(56) %54, ptr noundef @.str.11)
  br label %68

55:                                               ; preds = %46
  %56 = load i64, ptr %12, align 8
  %57 = load i64, ptr %10, align 8
  %58 = icmp ugt i64 %56, %57
  br i1 %58, label %59, label %67

59:                                               ; preds = %55
  %60 = load ptr, ptr %5, align 8
  %61 = call noundef i64 @_ZNK13MemoryCounter10peak_countEv(ptr noundef nonnull align 8 dereferenceable(32) %60)
  store i64 %61, ptr %13, align 8
  %62 = load ptr, ptr %8, align 8
  %63 = load i64, ptr %12, align 8
  %64 = call noundef i64 @_ZNK15MemReporterBase23amount_in_current_scaleEm(ptr noundef nonnull align 8 dereferenceable(32) %14, i64 noundef %63)
  %65 = load ptr, ptr %7, align 8
  %66 = load i64, ptr %13, align 8
  call void (ptr, ptr, ...) @_ZN12outputStream5printEPKcz(ptr noundef nonnull align 8 dereferenceable(56) %62, ptr noundef @.str.12, i64 noundef %64, ptr noundef %65, i64 noundef %66)
  br label %67

67:                                               ; preds = %59, %55
  br label %68

68:                                               ; preds = %67, %53
  ret void
}