; Function Attrs: mustprogress nounwind uwtable
define hidden void @_ZNK15MemReporterBase12print_mallocEPK13MemoryCounter8MEMFLAGS(ptr nocapture noundef nonnull readonly align 8 dereferenceable(32) %0, ptr noundef %1, i8 noundef zeroext %2) local_unnamed_addr #0 align 2 {
  %4 = load i64, ptr %0, align 8
  %5 = tail call noundef ptr @_ZN7NMTUtil10scale_nameEm(i64 noundef %4) #7
  %6 = getelementptr inbounds i8, ptr %0, i64 8
  %7 = load ptr, ptr %6, align 8
  %8 = getelementptr inbounds i8, ptr %1, i64 8
  %9 = load volatile i64, ptr %8, align 8
  %10 = load volatile i64, ptr %1, align 8
  %.not = icmp eq i8 %2, 27
  br i1 %.not, label %21, label %11

11:                                               ; preds = %3
  %12 = icmp eq i8 %2, 3
  %13 = select i1 %12, ptr @.str.5, ptr @.str.6
  %14 = load i64, ptr %0, align 8
  %15 = lshr i64 %14, 1
  %16 = add i64 %15, %9
  %17 = udiv i64 %16, %14
  %18 = zext i8 %2 to i64
  %19 = getelementptr inbounds [28 x %"struct.NMTUtil::S"], ptr @_ZN7NMTUtil8_stringsE, i64 0, i64 %18, i32 1
  %20 = load ptr, ptr %19, align 8
  tail call void (ptr, ptr, ...) @_ZN12outputStream5printEPKcz(ptr noundef nonnull align 8 dereferenceable(56) %7, ptr noundef nonnull @.str.7, ptr noundef nonnull %13, i64 noundef %17, ptr noundef %5, ptr noundef %20) #7
  br label %26

21:                                               ; preds = %3
  %22 = load i64, ptr %0, align 8
  %23 = lshr i64 %22, 1
  %24 = add i64 %23, %9
  %25 = udiv i64 %24, %22
  tail call void (ptr, ptr, ...) @_ZN12outputStream5printEPKcz(ptr noundef nonnull align 8 dereferenceable(56) %7, ptr noundef nonnull @.str.8, ptr noundef nonnull @.str.6, i64 noundef %25, ptr noundef %5) #7
  br label %26

26:                                               ; preds = %21, %11
  %.not31 = icmp eq i64 %10, 0
  br i1 %.not31, label %28, label %27

27:                                               ; preds = %26
  tail call void (ptr, ptr, ...) @_ZN12outputStream5printEPKcz(ptr noundef nonnull align 8 dereferenceable(56) %7, ptr noundef nonnull @.str.9, i64 noundef %10) #7
  br label %28

28:                                               ; preds = %27, %26
  tail call void (ptr, ptr, ...) @_ZN12outputStream5printEPKcz(ptr noundef nonnull align 8 dereferenceable(56) %7, ptr noundef nonnull @.str.10) #7
  %29 = getelementptr inbounds i8, ptr %1, i64 24
  %30 = load volatile i64, ptr %29, align 8
  %31 = icmp eq i64 %30, %9
  br i1 %31, label %32, label %33

32:                                               ; preds = %28
  tail call void @_ZN12outputStream9print_rawEPKcm(ptr noundef nonnull align 8 dereferenceable(56) %7, ptr noundef nonnull @.str.11, i64 noundef 10) #7
  br label %42

33:                                               ; preds = %28
  %34 = icmp ugt i64 %30, %9
  br i1 %34, label %35, label %42

35:                                               ; preds = %33
  %36 = getelementptr inbounds i8, ptr %1, i64 16
  %37 = load volatile i64, ptr %36, align 8
  %38 = load i64, ptr %0, align 8
  %39 = lshr i64 %38, 1
  %40 = add i64 %39, %30
  %41 = udiv i64 %40, %38
  tail call void (ptr, ptr, ...) @_ZN12outputStream5printEPKcz(ptr noundef nonnull align 8 dereferenceable(56) %7, ptr noundef nonnull @.str.12, i64 noundef %41, ptr noundef %5, i64 noundef %37) #7
  br label %42

42:                                               ; preds = %33, %35, %32
  ret void
}